; Function Attrs: nounwind uwtable
define ptr @l_Std_CloseableChannel_close___rarg(ptr noundef %0, ptr noundef %1) #1 {
  %3 = ptrtoint ptr %0 to i64
  %4 = and i64 %3, 1
  %.not.i28 = icmp eq i64 %4, 0
  br i1 %.not.i28, label %8, label %5

5:                                                ; preds = %2
  %6 = lshr i64 %3, 1
  %7 = trunc i64 %6 to i32
  br label %lean_obj_tag.exit

8:                                                ; preds = %2
  %9 = getelementptr i8, ptr %0, i64 4
  %.val.i = load i32, ptr %9, align 4
  %10 = lshr i32 %.val.i, 24
  br label %lean_obj_tag.exit

lean_obj_tag.exit:                                ; preds = %5, %8
  %.0.i = phi i32 [ %7, %5 ], [ %10, %8 ]
  %11 = getelementptr inbounds nuw i8, ptr %0, i64 8
  %12 = load ptr, ptr %11, align 8, !tbaa !10
  %13 = ptrtoint ptr %12 to i64
  %14 = and i64 %13, 1
  %.not40 = icmp eq i64 %14, 0
  switch i32 %.0.i, label %45 [
    i32 0, label %15
    i32 1, label %30
  ]

15:                                               ; preds = %lean_obj_tag.exit
  br i1 %.not40, label %16, label %lean_inc.exit23

16:                                               ; preds = %15
  %.val.i29 = load i32, ptr %12, align 4, !tbaa !4
  %17 = icmp sgt i32 %.val.i29, 0
  br i1 %17, label %18, label %20, !prof !9

18:                                               ; preds = %16
  %19 = add nuw i32 %.val.i29, 1
  store i32 %19, ptr %12, align 4, !tbaa !4
  br label %lean_inc.exit23

20:                                               ; preds = %16
  %.not.i30 = icmp eq i32 %.val.i29, 0
  br i1 %.not.i30, label %lean_inc.exit23, label %21

21:                                               ; preds = %20
  tail call void @lean_inc_ref_cold(ptr noundef nonnull %12) #7
  br label %lean_inc.exit23

lean_inc.exit23:                                  ; preds = %21, %20, %18, %15
  br i1 %.not.i28, label %22, label %lean_dec.exit21

22:                                               ; preds = %lean_inc.exit23
  %23 = load i32, ptr %0, align 4, !tbaa !4
  %24 = icmp sgt i32 %23, 1
  br i1 %24, label %25, label %27, !prof !9

25:                                               ; preds = %22
  %26 = add nsw i32 %23, -1
  store i32 %26, ptr %0, align 4, !tbaa !4
  br label %lean_dec.exit21

27:                                               ; preds = %22
  %.not.i = icmp eq i32 %23, 0
  br i1 %.not.i, label %lean_dec.exit21, label %28

28:                                               ; preds = %27
  tail call void @lean_dec_ref_cold(ptr noundef nonnull %0) #7
  br label %lean_dec.exit21

lean_dec.exit21:                                  ; preds = %28, %27, %25, %lean_inc.exit23
  %29 = tail call ptr @l___private_Std_Sync_Channel_0__Std_CloseableChannel_Unbounded_close___rarg(ptr noundef %12, ptr noundef %1)
  br label %60

30:                                               ; preds = %lean_obj_tag.exit
  br i1 %.not40, label %31, label %lean_inc.exit22

31:                                               ; preds = %30
  %.val.i31 = load i32, ptr %12, align 4, !tbaa !4
  %32 = icmp sgt i32 %.val.i31, 0
  br i1 %32, label %33, label %35, !prof !9

33:                                               ; preds = %31
  %34 = add nuw i32 %.val.i31, 1
  store i32 %34, ptr %12, align 4, !tbaa !4
  br label %lean_inc.exit22

35:                                               ; preds = %31
  %.not.i32 = icmp eq i32 %.val.i31, 0
  br i1 %.not.i32, label %lean_inc.exit22, label %36

36:                                               ; preds = %35
  tail call void @lean_inc_ref_cold(ptr noundef nonnull %12) #7
  br label %lean_inc.exit22

lean_inc.exit22:                                  ; preds = %36, %35, %33, %30
  br i1 %.not.i28, label %37, label %lean_dec.exit20

37:                                               ; preds = %lean_inc.exit22
  %38 = load i32, ptr %0, align 4, !tbaa !4
  %39 = icmp sgt i32 %38, 1
  br i1 %39, label %40, label %42, !prof !9

40:                                               ; preds = %37
  %41 = add nsw i32 %38, -1
  store i32 %41, ptr %0, align 4, !tbaa !4
  br label %lean_dec.exit20

42:                                               ; preds = %37
  %.not.i24 = icmp eq i32 %38, 0
  br i1 %.not.i24, label %lean_dec.exit20, label %43

43:                                               ; preds = %42
  tail call void @lean_dec_ref_cold(ptr noundef nonnull %0) #7
  br label %lean_dec.exit20

lean_dec.exit20:                                  ; preds = %43, %42, %40, %lean_inc.exit22
  %44 = tail call ptr @l___private_Std_Sync_Channel_0__Std_CloseableChannel_Zero_close___rarg(ptr noundef %12, ptr noundef %1)
  br label %60

45:                                               ; preds = %lean_obj_tag.exit
  br i1 %.not40, label %46, label %lean_inc.exit

46:                                               ; preds = %45
  %.val.i34 = load i32, ptr %12, align 4, !tbaa !4
  %47 = icmp sgt i32 %.val.i34, 0
  br i1 %47, label %48, label %50, !prof !9

48:                                               ; preds = %46
  %49 = add nuw i32 %.val.i34, 1
  store i32 %49, ptr %12, align 4, !tbaa !4
  br label %lean_inc.exit

50:                                               ; preds = %46
  %.not.i35 = icmp eq i32 %.val.i34, 0
  br i1 %.not.i35, label %lean_inc.exit, label %51

51:                                               ; preds = %50
  tail call void @lean_inc_ref_cold(ptr noundef nonnull %12) #7
  br label %lean_inc.exit

lean_inc.exit:                                    ; preds = %51, %50, %48, %45
  br i1 %.not.i28, label %52, label %lean_dec.exit

52:                                               ; preds = %lean_inc.exit
  %53 = load i32, ptr %0, align 4, !tbaa !4
  %54 = icmp sgt i32 %53, 1
  br i1 %54, label %55, label %57, !prof !9

55:                                               ; preds = %52
  %56 = add nsw i32 %53, -1
  store i32 %56, ptr %0, align 4, !tbaa !4
  br label %lean_dec.exit

57:                                               ; preds = %52
  %.not.i26 = icmp eq i32 %53, 0
  br i1 %.not.i26, label %lean_dec.exit, label %58

58:                                               ; preds = %57
  tail call void @lean_dec_ref_cold(ptr noundef nonnull %0) #7
  br label %lean_dec.exit

lean_dec.exit:                                    ; preds = %58, %57, %55, %lean_inc.exit
  %59 = tail call ptr @l___private_Std_Sync_Channel_0__Std_CloseableChannel_Bounded_close___rarg(ptr noundef %12, ptr noundef %1)
  br label %60

60:                                               ; preds = %lean_dec.exit, %lean_dec.exit20, %lean_dec.exit21
  %.0 = phi ptr [ %59, %lean_dec.exit ], [ %44, %lean_dec.exit20 ], [ %29, %lean_dec.exit21 ]
  ret ptr %.0
}